; Function Attrs: mustprogress uwtable
define zeroext i1 @ulocimp_isCanonicalizedLocaleForTest_75(ptr noundef %localeName) local_unnamed_addr #1 personality ptr @__gxx_personality_v0 {
entry:
  %l = alloca %"class.icu_75::Locale", align 8
  %status = alloca i32, align 4
  %temp = alloca %"class.icu_75::CharString", align 8
  call void @_ZN6icu_756LocaleC1EPKcS2_S2_S2_(ptr noundef nonnull align 8 dereferenceable(217) %l, ptr noundef %localeName, ptr noundef null, ptr noundef null, ptr noundef null)
  store i32 0, ptr %status, align 4
  invoke void @_ZN6icu_7515MaybeStackArrayIcLi40EEC1Ev(ptr noundef nonnull align 8 dereferenceable(53) %temp)
          to label %invoke.cont unwind label %lpad

invoke.cont:                                      ; preds = %entry
  %len.i = getelementptr inbounds i8, ptr %temp, i64 56
  store i32 0, ptr %len.i, align 8
  %0 = load ptr, ptr %temp, align 8
  store i8 0, ptr %0, align 1
  %call = invoke fastcc noundef zeroext i1 @_ZN6icu_7512_GLOBAL__N_118canonicalizeLocaleERKNS_6LocaleERNS_10CharStringER10UErrorCode(ptr noundef nonnull align 8 dereferenceable(217) %l, ptr noundef nonnull align 8 dereferenceable(60) %temp, ptr noundef nonnull align 4 dereferenceable(4) %status)
          to label %invoke.cont2 unwind label %lpad1

invoke.cont2:                                     ; preds = %invoke.cont
  %1 = load i32, ptr %status, align 4
  %cmp.i = icmp slt i32 %1, 1
  %not.call = xor i1 %call, true
  %2 = select i1 %not.call, i1 %cmp.i, i1 false
  call void @_ZN6icu_7515MaybeStackArrayIcLi40EED1Ev(ptr noundef nonnull align 8 dereferenceable(53) %temp) #20
  call void @_ZN6icu_756LocaleD1Ev(ptr noundef nonnull align 8 dereferenceable(217) %l) #20
  ret i1 %2

lpad:                                             ; preds = %entry
  %3 = landingpad { ptr, i32 }
          cleanup
  br label %ehcleanup

lpad1:                                            ; preds = %invoke.cont
  %4 = landingpad { ptr, i32 }
          cleanup
  call void @_ZN6icu_7515MaybeStackArrayIcLi40EED1Ev(ptr noundef nonnull align 8 dereferenceable(53) %temp) #20
  br label %ehcleanup

ehcleanup:                                        ; preds = %lpad1, %lpad
  %.pn = phi { ptr, i32 } [ %4, %lpad1 ], [ %3, %lpad ]
  call void @_ZN6icu_756LocaleD1Ev(ptr noundef nonnull align 8 dereferenceable(217) %l) #20
  resume { ptr, i32 } %.pn
}